; Function Attrs: null_pointer_is_valid sspstrong uwtable
define internal fastcc void @xinputGetDeviceControl(ptr noundef %0, ptr noundef captures(none) %1, ptr noundef %2, i32 noundef %3) unnamed_addr #1 {
  %5 = load i32, ptr @hf_x11_xinput_GetDeviceControl_control_id, align 4
  %6 = tail call fastcc i32 @field16(ptr noundef %0, ptr noundef %1, ptr noundef %2, i32 noundef %5, i32 noundef %3)
  %7 = load i32, ptr @hf_x11_xinput_GetDeviceControl_device_id, align 4
  %8 = load i32, ptr %1, align 4
  %9 = tail call ptr @proto_tree_add_item(ptr noundef %2, i32 noundef %7, ptr noundef %0, i32 noundef %8, i32 noundef 1, i32 noundef %3)
  %10 = load i32, ptr %1, align 4
  %11 = add i32 %10, 1
  store i32 %11, ptr %1, align 4
  %12 = load i32, ptr @hf_x11_unused, align 4
  %13 = tail call ptr @proto_tree_add_item(ptr noundef %2, i32 noundef %12, ptr noundef %0, i32 noundef %11, i32 noundef 1, i32 noundef 0)
  %14 = load i32, ptr %1, align 4
  %15 = add i32 %14, 1
  store i32 %15, ptr %1, align 4
  ret void
}